target datalayout = "e-m:e-p270:32:32-p271:32:32-p272:64:64-i64:64-i128:128-f80:128-n8:16:32:64-S128"
target triple = "x86_64-pc-linux-gnu"

%struct.TileBufferDec = type { ptr, i64 }
%struct.TileJobsDec = type { ptr, ptr }

; Function Attrs: nounwind uwtable
define internal i32 @compare_tile_buffers(ptr noundef %0, ptr noundef %1) #0 {
  %3 = alloca ptr, align 8
  %4 = alloca ptr, align 8
  %5 = alloca ptr, align 8
  %6 = alloca ptr, align 8
  store ptr %0, ptr %3, align 8
  store ptr %1, ptr %4, align 8
  %7 = load ptr, ptr %3, align 8
  store ptr %7, ptr %5, align 8
  %8 = load ptr, ptr %4, align 8
  store ptr %8, ptr %6, align 8
  %9 = load ptr, ptr %6, align 8
  %10 = getelementptr inbounds nuw %struct.TileJobsDec, ptr %9, i32 0, i32 0
  %11 = load ptr, ptr %10, align 8
  %12 = getelementptr inbounds nuw %struct.TileBufferDec, ptr %11, i32 0, i32 1
  %13 = load i64, ptr %12, align 8
  %14 = trunc i64 %13 to i32
  %15 = load ptr, ptr %5, align 8
  %16 = getelementptr inbounds nuw %struct.TileJobsDec, ptr %15, i32 0, i32 0
  %17 = load ptr, ptr %16, align 8
  %18 = getelementptr inbounds nuw %struct.TileBufferDec, ptr %17, i32 0, i32 1
  %19 = load i64, ptr %18, align 8
  %20 = trunc i64 %19 to i32
  %21 = sub nsw i32 %14, %20
  ret i32 %21
}